; Function Attrs: mustprogress uwtable
define void @_ZN8QuantLib19CappedFlooredCoupon10deepUpdateEv(ptr noundef nonnull align 8 dereferenceable(216) %this) unnamed_addr #8 align 2 {
entry:
  %add.ptr = getelementptr inbounds i8, ptr %this, i64 8
  %vtable = load ptr, ptr %add.ptr, align 8, !tbaa !33
  %vfn = getelementptr inbounds i8, ptr %vtable, i64 16
  %0 = load ptr, ptr %vfn, align 8
  tail call void %0(ptr noundef nonnull align 8 dereferenceable(12) %add.ptr)
  %underlying_ = getelementptr inbounds nuw i8, ptr %this, i64 176
  %1 = load ptr, ptr %underlying_, align 8, !tbaa !50
  %cmp.not.i = icmp eq ptr %1, null
  br i1 %cmp.not.i, label %cond.false.i, label %_ZNK5boost10shared_ptrIN8QuantLib18FloatingRateCouponEEptEv.exit, !prof !52

cond.false.i:                                     ; preds = %entry
  tail call void @_ZN5boost16assertion_failedEPKcS1_S1_l(ptr noundef nonnull @.str.14, ptr noundef nonnull @__PRETTY_FUNCTION__._ZNK5boost10shared_ptrIN8QuantLib18FloatingRateCouponEEptEv, ptr noundef nonnull @.str.15, i64 noundef 784)
  %.pre.i = load ptr, ptr %underlying_, align 8, !tbaa !50
  br label %_ZNK5boost10shared_ptrIN8QuantLib18FloatingRateCouponEEptEv.exit

_ZNK5boost10shared_ptrIN8QuantLib18FloatingRateCouponEEptEv.exit: ; preds = %entry, %cond.false.i
  %2 = phi ptr [ %1, %entry ], [ %.pre.i, %cond.false.i ]
  %vtable2 = load ptr, ptr %2, align 8, !tbaa !33
  %vbase.offset.ptr = getelementptr i8, ptr %vtable2, i64 -32
  %vbase.offset = load i64, ptr %vbase.offset.ptr, align 8
  %add.ptr3 = getelementptr inbounds i8, ptr %2, i64 %vbase.offset
  %vtable4 = load ptr, ptr %add.ptr3, align 8, !tbaa !33
  %vfn5 = getelementptr inbounds i8, ptr %vtable4, i64 24
  %3 = load ptr, ptr %vfn5, align 8
  tail call void %3(ptr noundef nonnull align 8 dereferenceable(56) %add.ptr3)
  ret void
}